; Function Attrs: nounwind uwtable
define range(i32 -1, 1) i32 @H5G_loc_exists(ptr noundef %0, ptr noundef %1, ptr noundef %2) local_unnamed_addr #0 {
  %4 = load i8, ptr @H5G_init_g, align 1, !tbaa !3, !range !7, !noundef !8
  %5 = trunc nuw i8 %4 to i1
  %6 = load i8, ptr @H5_libterm_g, align 1, !range !7
  %7 = trunc nuw i8 %6 to i1
  %8 = select i1 %5, i1 true, i1 %7
  br i1 %8, label %16, label %9, !prof !9

9:                                                ; preds = %3
  store i8 1, ptr @H5G_init_g, align 1, !tbaa !3
  %10 = tail call i32 @H5G__init_package() #9
  %11 = icmp slt i32 %10, 0
  br i1 %11, label %12, label %._crit_edge

._crit_edge:                                      ; preds = %9
  %.pre = load i8, ptr @H5G_init_g, align 1, !tbaa !3, !range !7
  %.pre5 = load i8, ptr @H5_libterm_g, align 1, !range !7
  %.pre6 = trunc nuw i8 %.pre to i1
  %.pre7 = trunc nuw i8 %.pre5 to i1
  br label %16

12:                                               ; preds = %9
  store i8 0, ptr @H5G_init_g, align 1, !tbaa !3
  %13 = load i64, ptr @H5E_FUNC_g, align 8, !tbaa !10
  %14 = load i64, ptr @H5E_CANTINIT_g, align 8, !tbaa !10
  %15 = tail call i32 (ptr, ptr, i32, i64, i64, ptr, ...) @H5E_printf_stack(ptr noundef nonnull @.str, ptr noundef nonnull @__func__.H5G_loc_exists, i32 noundef 615, i64 noundef %13, i64 noundef %14, ptr noundef nonnull @.str.1) #9
  br label %26

16:                                               ; preds = %._crit_edge, %3
  %.pre-phi8 = phi i1 [ %.pre7, %._crit_edge ], [ %7, %3 ]
  %.pre-phi = phi i1 [ %.pre6, %._crit_edge ], [ %5, %3 ]
  %17 = xor i1 %.pre-phi8, true
  %18 = select i1 %.pre-phi, i1 true, i1 %17
  br i1 %18, label %19, label %26, !prof !9

19:                                               ; preds = %16
  %20 = tail call i32 @H5G_traverse(ptr noundef %0, ptr noundef %1, i32 noundef 8, ptr noundef nonnull @H5G__loc_exists_cb, ptr noundef %2) #9
  %21 = icmp slt i32 %20, 0
  br i1 %21, label %22, label %26

22:                                               ; preds = %19
  %23 = load i64, ptr @H5E_SYM_g, align 8, !tbaa !10
  %24 = load i64, ptr @H5E_NOTFOUND_g, align 8, !tbaa !10
  %25 = tail call i32 (ptr, ptr, i32, i64, i64, ptr, ...) @H5E_printf_stack(ptr noundef nonnull @.str, ptr noundef nonnull @__func__.H5G_loc_exists, i32 noundef 624, i64 noundef %23, i64 noundef %24, ptr noundef nonnull @.str.32) #9
  br label %26

26:                                               ; preds = %12, %22, %19, %16
  %.0 = phi i32 [ -1, %12 ], [ -1, %22 ], [ 0, %19 ], [ 0, %16 ]
  ret i32 %.0
}